(itrajectory_utils
Trajectory
p0
(dp1
S'draw'
p2
I00
sS'keyframes'
p3
(dp4
S'pos'
p5
(lp6
(F482.0
F208.0
tp7
a(F473.4376785080722
F208.0
tp8
a(F464.87535701614445
F208.0
tp9
a(F456.3130355242167
F208.0
tp10
a(F447.7507140322889
F208.0
tp11
a(F439.48907174192004
F209.7454268076383
tp12
a(F432.87404210389235
F215.12296533315393
tp13
a(F427.38649796404644
F221.69081106644563
tp14
a(F422.34558008104017
F228.61122352729714
tp15
a(F417.2865617267313
F235.51551410419407
tp16
a(F412.17243850826543
F242.38262007899885
tp17
a(F407.15632718965196
F249.32172495133634
tp18
a(F402.2101749301649
F256.31089069589
tp19
a(F397.323282909934
F263.341625589259
tp20
a(F392.49439187912134
F270.4123200492101
tp21
a(F387.7319650490469
F277.5279338162696
tp22
a(F383.06475972077527
F284.70628553103535
tp23
a(F379.38955058748235
F292.38874753333243
tp24
a(F376.41737906117
F300.41865807749923
tp25
a(F373.41576239815316
F308.4376085735142
tp26
a(F370.38707659395715
F316.44637595644554
tp27
a(F367.33946691155006
F324.4479639329421
tp28
a(F364.29091034633245
F332.4491911514574
tp29
a(F361.2719692961044
F340.4616263892031
tp30
a(F358.32117901530074
F348.4993792079111
tp31
a(F355.47035390550883
F356.57310271093013
tp32
a(F352.7311473101786
F364.68537513967414
tp33
a(F351.2565533199791
F372.95543991815634
tp34
a(F355.91899812359463
F379.9348456988665
tp35
a(F361.14407452785287
F386.7040961298838
tp36
a(F365.91078610750753
F393.81660423384454
tp37
a(F371.9414331464815
F399.6486840216846
tp38
a(F378.7543181236197
F404.83451196824666
tp39
a(F385.94144797471506
F409.47772083919403
tp40
a(F393.71908388261045
F413.0494283849651
tp41
a(F401.5693862952823
F416.46792222773877
tp42
a(F409.4259434709397
F419.872002334565
tp43
a(F417.30417366427696
F423.22555940727375
tp44
a(F425.22033780672155
F426.48845920591134
tp45
a(F433.1869152993673
F429.62615703743995
tp46
a(F441.2091952770759
F432.61852102186026
tp47
a(F449.2853391143218
F435.4623332556669
tp48
a(F457.4090595351509
F438.16731381029564
tp49
a(F465.5725542166479
F440.7498562618528
tp50
a(F473.8013975617001
F443.00999661317553
tp51
a(F482.3126705873692
F443.8879078955653
tp52
a(F490.72708042310603
F445.4672022922097
tp53
a(F499.07321649574556
F447.3777235992904
tp54
a(F507.3726247625691
F449.48274861538926
tp55
a(F515.640735327959
F451.7078239978186
tp56
a(F523.8924651648783
F453.99304416151386
tp57
a(F532.1558196297825
F456.23539453057555
tp58
a(F538.3911364681358
F453.9045124997126
tp59
a(F545.6764418655822
F449.4924292226649
tp60
a(F553.7171962580516
F446.59751956810965
tp61
a(F561.9790107569684
F444.35114943714
tp62
a(F570.1917565407153
F441.92964845510977
tp63
a(F578.3998868392915
F439.4924743192124
tp64
a(F586.6343432815673
F437.1462227904769
tp65
a(F594.9148460453024
F434.967911733285
tp66
a(F603.161483177305
F432.6653397375921
tp67
a(F611.2918275852284
F429.9857734524521
tp68
a(F619.0481443919253
F426.3843885900103
tp69
a(F625.7251271674671
F421.07204560322555
tp70
a(F628.2680569923596
F413.84201228986825
tp71
a(F628.0099356805822
F405.28515044316845
tp72
a(F628.0
F396.7228487012608
tp73
a(F628.0
F388.16052720933294
tp74
a(F628.0
F379.5982057174052
tp75
a(F627.9999999999999
F371.03588422547745
tp76
a(F627.9179755479997
F362.4745057771646
tp77
a(F627.1047999293061
F353.95573355687407
tp78
a(F625.4574748964852
F345.55544283537535
tp79
a(F623.3466420962328
F337.2579524448169
tp80
a(F622.0917786429115
F328.80902708616895
tp81
a(F620.2441737809377
F320.4491770154174
tp82
a(F618.2401219933506
F312.12478525894
tp83
a(F616.748998316536
F303.6967353279156
tp84
a(F615.8888683044712
F295.1784341221534
tp85
a(F614.890274503629
F286.6849400034173
tp86
a(F611.9764229523596
F278.63391770886267
tp87
a(F608.8078974645085
F270.68004890177815
tp88
a(F605.2160244047892
F262.90955595011945
tp89
a(F600.8392023350287
F255.55926623821634
tp90
a(F595.4373030920307
F248.92990902674123
tp91
a(F589.4080872898726
F242.86150397962402
tp92
a(F583.3948875999909
F236.84656085464337
tp93
a(F576.8084018566523
F231.38291280368884
tp94
a(F571.714181411182
F224.5693784851665
tp95
a(F565.7774625957319
F218.40170741894548
tp96
a(F559.4238093142478
F212.66559980017888
tp97
a(F552.0342143501548
F208.65543198120568
tp98
a(F543.5025675754723
F208.0141957456865
tp99
a(F534.9403131797859
F208.0
tp100
a(F526.8985897784085
F206.8278289296491
tp101
a(F519.2088100408902
F203.10131697703952
tp102
a(F512.0228853441416
F201.00766506853708
tp103
a(F503.5226736298805
F201.84107698002117
tp104
a(F495.0461572340443
F202.9550217398494
tp105
a(F486.8325052870075
F204.90456333861385
tp106
asS'th'
p107
(lp108
I0
aI0
aF180.0
aF180.0
aF185.96469236533778
aF205.51899470847562
aF224.61464401695574
aF232.02530237471225
aF233.8491835137021
aF233.54618684552065
aF233.73083528922348
aF234.4255693481967
aF234.95558820661614
aF235.43343867951367
aF235.93749960954088
aF236.58743569377293
aF240.70150326675173
aF247.06131555132885
aF249.58347257572743
aF249.38158648447495
aF249.21710253049605
aF249.14599314024986
aF249.2485494598713
aF249.59774280118805
aF250.19645262639446
aF250.94702081329652
aF255.61612394214495
aF281.8170952311274
aF305.7040230517923
aF305.74673155447914
aF309.89422793653125
aF319.34066276829583
aF324.9290392399903
aF331.23490749937037
aF335.9014428842131
aF336.5213645711205
aF336.7578730043976
aF337.270619660335
aF338.0510232310023
aF339.02338344966626
aF340.07285382223864
aF341.092593342637
aF342.01436364437916
aF343.54346013102446
aF349.37638298758964
aF351.74040720238963
aF348.23819296425455
aF346.43719631468184
aF345.3527773272571
aF344.72911478091044
aF344.66916548864396
aF182.65724775954848
aF25.84820091485107
aF25.500032263214507
aF17.505629280634285
aF15.819429493127853
aF16.482644534356112
aF16.220601753889653
aF15.32124091864732
aF15.169518510696008
aF16.920713521370658
aF21.573596300088703
aF31.7063416588751
aF54.5643999309543
aF124.44725156040212
aF179.10284346759164
aF134.96341124300352
aF89.99330838262654
aF134.99665419131287
aF179.72554004254638
aF176.99916210251007
aF171.72607351063948
aF167.31597522172396
aF168.63951943174646
aF169.54471196069557
aF167.0006854863775
aF168.2153853413878
aF172.1004852743426
aF173.76428260007634
aF166.6990314063089
aF159.19156891250464
aF156.73549414721055
aF152.2096364693325
aF145.0265429012798
aF138.0054517436642
aF135.09695455775625
aF132.34241309613105
aF136.44622708038253
aF139.6545029757438
aF134.08447148434652
aF125.28178161275235
aF106.39297354697626
aF92.19662341151468
aF94.19404497021934
aF107.07409740264958
aF111.0494103936324
aF145.92172407041198
aF186.54318574939958
aF190.41946778700085
aI0
asS't'
p109
(lp110
F0.0
aF8.562321491927786
aF17.124642983855573
aF25.686964475783356
aF34.249285967711145
aF42.811607459638935
aF51.37392895156671
aF59.93625044349451
aF68.49857193542229
aF77.06089342735007
aF85.62321491927787
aF94.18553641120565
aF102.74785790313342
aF111.31017939506123
aF119.87250088698902
aF128.43482237891678
aF136.99714387084458
aF145.55946536277236
aF154.12178685470013
aF162.68410834662794
aF171.24642983855574
aF179.8087513304835
aF188.3710728224113
aF196.9333943143391
aF205.49571580626684
aF214.05803729819465
aF222.62035879012245
aF231.18268028205023
aF239.74500177397803
aF248.30732326590578
aF256.86964475783356
aF265.4319662497614
aF273.99428774168916
aF282.55660923361694
aF291.1189307255447
aF299.6812522174725
aF308.24357370940027
aF316.8058952013281
aF325.3682166932559
aF333.93053818518365
aF342.4928596771115
aF351.0551811690392
aF359.617502660967
aF368.1798241528948
aF376.7421456448226
aF385.30446713675036
aF393.8667886286782
aF402.4291101206059
aF410.9914316125337
aF419.5537531044615
aF428.1160745963893
aF436.6783960883171
aF445.2407175802449
aF453.8030390721727
aF462.36536056410046
aF470.9276820560283
aF479.49000354795606
aF488.0523250398838
aF496.61464653181156
aF505.17696802373933
aF513.7392895156671
aF522.3016110075949
aF530.8639324995228
aF539.4262539914505
aF547.9885754833783
aF556.5508969753062
aF565.1132184672339
aF573.6755399591617
aF582.2378614510894
aF590.8001829430171
aF599.362504434945
aF607.9248259268728
aF616.4871474188005
aF625.0494689107284
aF633.6117904026562
aF642.1741118945839
aF650.7364333865117
aF659.2987548784396
aF667.8610763703673
aF676.4233978622951
aF684.985719354223
aF693.5480408461507
aF702.1103623380784
aF710.6726838300062
aF719.235005321934
aF727.7973268138618
aF736.3596483057896
aF744.9219697977173
aF753.4842912896452
aF762.046612781573
aF770.6089342735007
aF779.1712557654286
aF787.7335772573564
aF796.2958987492841
aF804.8582202412118
aF813.4205417331397
aF821.9828632250674
aF830.5451847169952
aF839.107506208923
aF847.6698277008508
assS'points'
p111
(lp112
(I482
I208
tp113
a(I480
I208
tp114
a(I477
I208
tp115
a(I475
I208
tp116
a(I470
I208
tp117
a(I467
I208
tp118
a(I461
I208
tp119
a(I458
I208
tp120
a(I448
I208
tp121
a(I445
I208
tp122
a(I438
I209
tp123
a(I433
I213
tp124
a(I420
I232
tp125
a(I409
I246
tp126
a(I389
I275
tp127
a(I381
I288
tp128
a(I366
I329
tp129
a(I360
I342
tp130
a(I351
I370
tp131
a(I351
I372
tp132
a(I351
I376
tp133
a(I356
I380
tp134
a(I359
I383
tp135
a(I366
I394
tp136
a(I368
I397
tp137
a(I372
I399
tp138
a(I380
I407
tp139
a(I389
I411
tp140
a(I419
I424
tp141
a(I436
I432
tp142
a(I473
I443
tp143
a(I491
I443
tp144
a(I538
I459
tp145
a(I537
I457
tp146
a(I537
I455
tp147
a(I538
I452
tp148
a(I552
I447
tp149
a(I561
I445
tp150
a(I579
I439
tp151
a(I591
I436
tp152
a(I614
I430
tp153
a(I622
I427
tp154
a(I629
I417
tp155
a(I628
I417
tp156
a(I628
I407
tp157
a(I628
I401
tp158
a(I628
I387
tp159
a(I628
I380
tp160
a(I628
I369
tp161
a(I628
I360
tp162
a(I628
I354
tp163
a(I623
I336
tp164
a(I623
I330
tp165
a(I619
I316
tp166
a(I618
I311
tp167
a(I616
I302
tp168
a(I616
I293
tp169
a(I615
I287
tp170
a(I607
I264
tp171
a(I602
I256
tp172
a(I597
I251
tp173
a(I595
I248
tp174
a(I591
I244
tp175
a(I586
I240
tp176
a(I584
I236
tp177
a(I576
I232
tp178
a(I576
I230
tp179
a(I573
I225
tp180
a(I559
I211
tp181
a(I554
I209
tp182
a(I549
I208
tp183
a(I544
I208
tp184
a(I541
I208
tp185
a(I537
I208
tp186
a(I536
I208
tp187
a(I528
I208
tp188
a(I527
I206
tp189
a(I521
I204
tp190
a(I519
I203
tp191
a(I519
I201
tp192
a(I518
I201
tp193
a(I517
I201
tp194
a(I516
I201
tp195
a(I515
I201
tp196
a(I514
I201
tp197
a(I511
I201
tp198
a(I506
I201
tp199
a(I503
I202
tp200
a(I497
I203
tp201
a(I495
I203
tp202
a(I492
I203
tp203
a(I488
I204
tp204
a(I485
I206
tp205
a(I482
I207
tp206
a(I481
I207
tp207
a(I481
I208
tp208
a(I480
I208
tp209
a(I480
I209
tp210
asS'path'
p211
NsS'duration'
p212
F856.2321491927786
sS'velocity'
p213
I1
sS'arclen'
p214
F856.2321491927786
sb.