(itrajectory_utils
Trajectory
p0
(dp1
S'draw'
p2
I00
sS'keyframes'
p3
(dp4
S'thdot'
p5
(lp6
I0
aI0
aF86.37940839440401
aF41.27945076243522
aF-77.14362029816277
aF-22.48573622634333
aF30.321685401905597
aF20.761462727889196
aF-79.93868423130661
aF-109.77246100803836
aF-56.31096140745054
aF-15.120678693433094
aF120.79357511269444
aF8.431937720492211
aF12.800811395567624
aF15.37748307528095
aF9.805034912390157
aF58.629420051310625
aF4.433652695101892
aF14.662871979255897
aF-54.35190399066015
aF-6.422338557046389
aF8.235604558295377
aF1.770415910562262
aF-2.1218801196390786
aF-7.35667647460172
aF31.804574197465136
aF48.72066212576149
aF-50.28610043054641
aF-12.200461173604499
aF-6.61225979899576
aF-9.828802597925584
aF-48.878276996560956
aF-28.292027021419244
aF8.71564857890876
aF3.2531310129663074
aF0.21456617649963872
aF-1.6630612667150184
aF-2.9112996872974657
aF-3.7877144212972507
aF-4.4301106455891075
aF-4.9178701384715975
aF-19.175102322083223
aF-22.195608671934757
aF14.672221824382929
aF22.071081603364092
aF30.602788510749633
aF34.53624868874587
aF27.51215718322235
aF13.83693824220726
aF2.930705900756875
aF-2.6574062765080053
aF-47.20456868219241
aF-0.2513571063924332
aF0.7675827958641736
aF1.1488942858434839
aF1.5407913272131215
aF1.9647861097909778
aF2.4453523916835955
aF3.01401245815472
aF3.715471944305853
aF4.618323710409717
aF5.835833813129645
aF7.570562131594772
aF10.22205535624186
aF14.690668619564757
aF52.75855088493855
aF21.18190784715484
aF5.468262292970192
aF-8.048157954279295
aF-32.29513193734273
aF13.416046994441142
aF25.611709448762838
aF117.48784432631697
aF73.2412389399828
aF-112.04685648589452
aF56.2357644272686
aF28.341789727929125
aF-59.87699920240323
aF11.204708732550936
aF12.41450720539275
aF15.84893893926502
aF35.28856841488072
aF10.648954082131912
aF-2.0277992177776154
aF-2.738821332518967
aF-3.900482656698255
aF-5.998080972616988
aF-10.412027789868128
aF-22.49862374223914
aF-75.30368462045813
aF51.91266356447986
aF68.70243107004309
aF58.15115607877356
aF-50.76468440323947
aF-161.26888233430935
aF14.560206441947482
aF11.605834361097381
aF11.53088356487619
aI0
asS'pos'
p7
(lp8
(F147.86531978465783
F507.2832774718566
tp9
a(F154.70146465548794
F505.1397993261571
tp10
a(F165.27673251518033
F501.6789435418394
tp11
a(F171.80740513878462
F498.7284816133739
tp12
a(F179.94483776999434
F494.53354259507904
tp13
a(F186.6026834178699
F491.87840253143014
tp14
a(F195.1959440584577
F488.7285625719085
tp15
a(F201.82569253757924
F486.0090016080816
tp16
a(F208.38420340243516
F483.11746387674845
tp17
a(F217.0819103345522
F480.28100497995433
tp18
a(F224.13520904614145
F479.012730927264
tp19
a(F231.26024158946666
F478.2440793663969
tp20
a(F240.3558398679914
F477.436567577947
tp21
a(F247.31883601581254
F475.7350773408887
tp22
a(F254.26346706261586
F473.96024060737864
tp23
a(F261.1787335748572
F472.07443756408696
tp24
a(F268.056452445414
F470.05595512276295
tp25
a(F274.90897751726044
F467.95323629802397
tp26
a(F283.44057025766625
F464.6335458602892
tp27
a(F290.1058325650202
F461.99739531371307
tp28
a(F296.7194381170306
F459.24033860190076
tp29
a(F305.3407011228701
F456.3164615556875
tp30
a(F312.14701543119907
F454.06893057778007
tp31
a(F318.92989562322157
F451.75136619009754
tp32
a(F325.70763335297397
F449.41878195633325
tp33
a(F332.49153148351934
F447.10420032471586
tp34
a(F339.2963926297907
F444.8521681264449
tp35
a(F347.8703804380938
F441.63088640359456
tp36
a(F354.41431063409453
F438.70588625706444
tp37
a(F362.99893221238136
F435.49978066564057
tp38
a(F369.75129054501843
F433.09475296653807
tp39
a(F376.5232954921929
F430.7456693434105
tp40
a(F383.32363861209564
F428.4800421324415
tp41
a(F392.1714180991263
F426.12208321455165
tp42
a(F399.15847367267645
F424.5225121774793
tp43
a(F406.1277350770735
F422.8468390432883
tp44
a(F413.09013135543665
F421.1428135572972
tp45
a(F420.05207061410493
F419.4369190635469
tp46
a(F427.01754180231455
F417.7455134102601
tp47
a(F433.98912440381366
F416.0794887335134
tp48
a(F440.9685207228274
F414.4465184689014
tp49
a(F447.9568578549845
F412.8522549114565
tp50
a(F454.9548693303847
F411.3010168564503
tp51
a(F463.94753619824843
F409.5327947890707
tp52
a(F471.01637553027274
F408.34567093809926
tp53
a(F478.0621505844572
F407.02901851552525
tp54
a(F485.06871676091964
F405.5183844411072
tp55
a(F492.01211532788255
F403.74073018513604
tp56
a(F498.87228375619793
F401.66482237675353
tp57
a(F505.65724606731095
F399.3539734382899
tp58
a(F512.4013605406839
F396.9259650080286
tp59
a(F519.1365517668845
F394.47323747105196
tp60
a(F525.8798526733962
F392.042917203706
tp61
a(F534.6729224336274
F389.448996468995
tp62
a(F541.5485512761154
F387.4230632223884
tp63
a(F548.4222312421022
F385.3905285170633
tp64
a(F555.292982346106
F383.34811645688245
tp65
a(F562.1597832104159
F381.2924644376864
tp66
a(F569.0215097315336
F379.21994019920146
tp67
a(F575.8768627204637
F377.1264345265523
tp68
a(F582.7242714763843
F375.00709532123625
tp69
a(F589.5617526197236
F372.85595196617936
tp70
a(F596.3866868121713
F370.6653413583286
tp71
a(F603.1954385544794
F368.4249643952451
tp72
a(F609.9826524316264
F366.1202078248656
tp73
a(F616.7398083200944
F363.72885701602587
tp74
a(F623.451798614084
F361.21375958354963
tp75
a(F631.8041139034252
F357.4384182369862
tp76
a(F638.255200990734
F354.31403192986977
tp77
a(F644.6847792958791
F351.1455795171776
tp78
a(F652.9459092343608
F347.1774204920251
tp79
a(F659.5271083794634
F344.3373874276358
tp80
a(F666.0596322991538
F341.3873390054936
tp81
a(F672.4938442774314
F338.22975332188025
tp82
a(F679.995176328084
F333.0624884176812
tp83
a(F685.4970243695269
F328.47677667542484
tp84
a(F693.2872963993932
F323.6504942160332
tp85
a(F699.097631618958
F319.4583688340429
tp86
a(F706.3156103466713
F313.85110106853654
tp87
a(F712.2893244596364
F309.88970961471966
tp88
a(F718.2069188711363
F305.84497785979454
tp89
a(F724.0609655991451
F301.70884436868596
tp90
a(F729.8317870591534
F297.45751207990185
tp91
a(F736.9646743669018
F291.7002880746398
tp92
a(F742.4819134949172
F287.12440221435384
tp93
a(F748.0107423365814
F282.56252812389283
tp94
a(F753.5551675338537
F278.019625960015
tp95
a(F759.1216900118565
F273.5038360399419
tp96
a(F764.7219281834166
F269.0299531906363
tp97
a(F770.3799130755534
F264.6294361188828
tp98
a(F776.1591188032953
F260.3901731177669
tp99
a(F782.3038935278805
F256.7178795520877
tp100
a(F789.8124111488311
F251.54104079451383
tp101
a(F795.3420376284256
F246.98125923618397
tp102
a(F800.5239704016465
F242.03318471239942
tp103
a(F807.4161470030625
F236.2420112103927
tp104
a(F813.7165268195827
F232.82414720493108
tp105
a(F819.9536727810652
F229.29205623775428
tp106
a(F826.1388908490812
F225.66977532019254
tp107
a(F832.2712049392828
F221.9586548293801
tp108
asS't'
p109
(lp110
F0.0
aF0.07167892276071676
aF0.14335784552143352
aF0.21503676828215026
aF0.28671569104286704
aF0.35839461380358384
aF0.43007353656430053
aF0.5017524593250173
aF0.5734313820857341
aF0.6451103048464508
aF0.7167892276071677
aF0.7884681503678843
aF0.8601470731286011
aF0.9318259958893179
aF1.0035049186500347
aF1.0751838414107513
aF1.1468627641714682
aF1.218541686932185
aF1.2902206096929016
aF1.3618995324536185
aF1.4335784552143354
aF1.505257377975052
aF1.5769363007357686
aF1.6486152234964855
aF1.7202941462572021
aF1.791973069017919
aF1.8636519917786358
aF1.9353309145393527
aF2.0070098373000693
aF2.078688760060786
aF2.1503676828215026
aF2.2220466055822197
aF2.2937255283429363
aF2.365404451103653
aF2.43708337386437
aF2.508762296625086
aF2.5804412193858033
aF2.65212014214652
aF2.723799064907237
aF2.7954779876679536
aF2.8671569104286707
aF2.938835833189387
aF3.010514755950104
aF3.0821936787108206
aF3.1538726014715373
aF3.2255515242322543
aF3.297230446992971
aF3.3689093697536876
aF3.4405882925144042
aF3.5122672152751213
aF3.583946138035838
aF3.6556250607965546
aF3.7273039835572717
aF3.7989829063179883
aF3.8706618290787054
aF3.942340751839422
aF4.014019674600139
aF4.085698597360855
aF4.157377520121572
aF4.229056442882289
aF4.300735365643005
aF4.372414288403722
aF4.444093211164439
aF4.5157721339251555
aF4.587451056685873
aF4.65912997944659
aF4.730808902207306
aF4.802487824968023
aF4.87416674772874
aF4.945845670489456
aF5.017524593250172
aF5.0892035160108895
aF5.160882438771607
aF5.232561361532324
aF5.30424028429304
aF5.375919207053757
aF5.447598129814474
aF5.51927705257519
aF5.590955975335907
aF5.662634898096624
aF5.734313820857341
aF5.805992743618058
aF5.877671666378774
aF5.949350589139491
aF6.021029511900208
aF6.092708434660924
aF6.164387357421641
aF6.236066280182358
aF6.3077452029430745
aF6.379424125703792
aF6.451103048464509
aF6.522781971225225
aF6.594460893985942
aF6.666139816746659
aF6.737818739507375
aF6.809497662268091
aF6.8811765850288085
aF6.9528555077895255
aF7.024534430550243
aF7.096213353310959
assS'points'
p111
(lp112
(I146
I508
tp113
a(I148
I507
tp114
a(I153
I506
tp115
a(I155
I505
tp116
a(I156
I505
tp117
a(I158
I504
tp118
a(I159
I504
tp119
a(I160
I504
tp120
a(I172
I499
tp121
a(I173
I498
tp122
a(I180
I494
tp123
a(I182
I494
tp124
a(I191
I490
tp125
a(I199
I488
tp126
a(I205
I484
tp127
a(I214
I481
tp128
a(I218
I480
tp129
a(I227
I478
tp130
a(I238
I478
tp131
a(I259
I473
tp132
a(I265
I471
tp133
a(I278
I467
tp134
a(I289
I462
tp135
a(I294
I461
tp136
a(I299
I458
tp137
a(I302
I458
tp138
a(I329
I448
tp139
a(I342
I444
tp140
a(I345
I443
tp141
a(I347
I442
tp142
a(I356
I438
tp143
a(I359
I437
tp144
a(I375
I431
tp145
a(I388
I427
tp146
a(I403
I424
tp147
a(I428
I417
tp148
a(I461
I410
tp149
a(I493
I405
tp150
a(I498
I402
tp151
a(I526
I392
tp152
a(I560
I382
tp153
a(I601
I370
tp154
a(I624
I361
tp155
a(I629
I359
tp156
a(I647
I350
tp157
a(I651
I348
tp158
a(I670
I340
tp159
a(I675
I337
tp160
a(I678
I335
tp161
a(I685
I328
tp162
a(I688
I327
tp163
a(I691
I325
tp164
a(I693
I324
tp165
a(I699
I320
tp166
a(I703
I316
tp167
a(I717
I307
tp168
a(I728
I299
tp169
a(I733
I295
tp170
a(I775
I260
tp171
a(I779
I258
tp172
a(I784
I256
tp173
a(I796
I247
tp174
a(I800
I243
tp175
a(I804
I238
tp176
a(I812
I234
tp177
a(I826
I226
tp178
a(I837
I219
tp179
a(I840
I217
tp180
a(I841
I216
tp181
asS'path'
p182
NsS'duration'
p183
F7.167892276071676
sS'velocity'
p184
I100
sS'arclen'
p185
F716.7892276071676
sb.