(itrajectory_utils
Trajectory
p0
(dp1
S'draw'
p2
I00
sS'keyframes'
p3
(dp4
S'thdot'
p5
(lp6
I0
aI0
aF54.53932207846525
aF13.241867210181232
aF39.26472444972064
aF96.5681965371862
aF59.918000633098565
aF20.380071306570233
aF7.033910339194201
aF5.645557398353332
aF11.088983625803895
aF3.7531198942139032
aF6.0130860461930355
aF6.9337643768688375
aF8.030991172047173
aF9.353661746398323
aF10.967213022352468
aF-19.69170295776861
aF6.015324150321671
aF97.38499784372533
aF61.54929778378721
aF153.67331989099105
aF-14.465093776578785
aF137.61040149490304
aF-42.73665598377947
aF1.855440124744335
aF143.563570797092
aF27.80562843007792
aF47.20973023492128
aF74.76301999926184
aF14.560906772411467
aF55.84927145276568
aF13.198571187261917
aF28.139506369637637
aF27.525759888649045
aF46.49320983116048
aF38.524529580588414
aF33.58575785736077
aF39.19223216334686
aF52.72773329683744
aF42.389832731704665
aF-2.342699919336716
aF-15.400850012667407
aF-6.512554560370365
aF4.859865306799714
aF-25.218152443511656
aF-13.705483706731414
aF74.97632255553101
aF32.862741114641786
aF-16.07638369846148
aF-43.89041324955886
aF-61.13866793935796
aF-35.807546003490785
aF12.811158988302974
aF7.711509215834444
aF3.9852430468948836
aF-17.241848500449496
aF-21.072085257016905
aF-111.90308899823377
aF-169.56583112780731
aF-66.42602148497384
aF-55.0069709180795
aF-36.57192685039731
aF-60.84401133542698
aF-55.799194156474975
aF7.481779718806742
aF-55.64125129653094
aF-42.34162891998918
aF-28.581186947683726
aF13.271623691419
aF2.924820848621015
aF-5.446274722999023
aF-2.7930866827511016
aF-1.776423516913681
aF-1.2588230951129409
aF-0.9528786529667789
aF-0.7542345521840903
aF-23.56476279885678
aF-69.26451274102486
aF-9.466472962025442
aF-10.403411053751732
aF-11.732063830798554
aF-13.839274180176062
aF-17.960360635909346
aF-33.28373295115968
aF-50.84511264466124
aF-12.589263133173564
aF-7.138857438446984
aF-11.976479332144066
aF-5.999009579893465
aF-10.221518987903682
aF-12.656777252561364
aF-29.718887219876116
aF16.9770767864159
aF-4.963929795164819
aF-21.489009868280398
aF-14.776060474949656
aF11.330842084026495
aF-40.00853431654951
aI0
asS'pos'
p7
(lp8
(F245.1449985579719
F173.74413308005595
tp9
a(F229.89396741464904
F182.20790190351022
tp10
a(F217.88384189974605
F192.07654680317668
tp11
a(F206.13213327419314
F205.07770931468755
tp12
a(F196.12722477982035
F216.97937852968792
tp13
a(F186.33959590685254
F231.5194363205826
tp14
a(F180.66177131865658
F248.07309799998347
tp15
a(F178.068140122585
F263.38241098195346
tp16
a(F176.09790102553563
F280.8191144567705
tp17
a(F174.64736665620913
F296.2994932114247
tp18
a(F173.4341669887396
F311.8001537804556
tp19
a(F172.59194857025497
F329.3269352736168
tp20
a(F172.00387895303464
F344.863970297481
tp21
a(F171.66940552711623
F360.4084838155317
tp22
a(F171.6274613624294
F375.9564724247463
tp23
a(F171.9243457862054
F391.5015907548343
tp24
a(F172.61566748793373
F407.0340365586134
tp25
a(F173.76887194336214
F422.53884534773033
tp26
a(F174.13374468441359
F440.0754923926948
tp27
a(F174.71083627821707
F455.61205234835745
tp28
a(F179.8487509863055
F472.13954474110994
tp29
a(F187.72714546159276
F487.7098931960907
tp30
a(F201.12017591763643
F498.65931124438015
tp31
a(F214.2395595958813
F510.27316176352105
tp32
a(F232.49130189910437
F516.9597796797333
tp33
a(F246.3693790169234
F523.9595821364204
tp34
a(F261.982419188608
F531.7360993750826
tp35
a(F279.37972811419945
F533.0
tp36
a(F296.9275738682873
F532.9485124238037
tp37
a(F312.3044703822903
F530.9218045694391
tp38
a(F328.85497059642813
F525.1800628007571
tp39
a(F343.3305762419599
F519.5080709764601
tp40
a(F358.4833939813952
F510.7312115912965
tp41
a(F371.6497383277072
F502.4615489416777
tp42
a(F385.73666364580987
F492.034812662071
tp43
a(F397.4993311034928
F481.88600320351514
tp44
a(F407.8942288699955
F470.3346208816407
tp45
a(F417.02836807619406
F457.75960766105464
tp46
a(F424.98060826894005
F444.40454994721784
tp47
a(F432.29949919914003
F428.47593130838936
tp48
a(F436.70639172094144
F413.57902787559107
tp49
a(F439.3762478228427
F398.26359062575705
tp50
a(F442.498639636345
F381.00159415670987
tp51
a(F445.9029152115325
F365.83084263505697
tp52
a(F449.5748085522125
F350.7224168566242
tp53
a(F453.4928952880828
F333.62129085802206
tp54
a(F457.99231718640056
F318.742396181029
tp55
a(F463.0430062773818
F304.03782569461055
tp56
a(F465.2557257694931
F286.7621984883546
tp57
a(F465.84968653490563
F271.2252647779402
tp58
a(F467.28228232436726
F253.75882056301174
tp59
a(F470.382525126709
F238.53847423840767
tp60
a(F476.6484912007942
F222.23136280665813
tp61
a(F483.6064705983719
F208.3284863075716
tp62
a(F490.0774512535418
F194.19117991871292
tp63
a(F496.2512751914301
F179.92136600150315
tp64
a(F503.043961942674
F163.74327338075432
tp65
a(F509.72693726352236
F149.70493378174157
tp66
a(F517.1977297569485
F136.0780125712851
tp67
a(F528.2483160298683
F125.45577124056958
tp68
a(F544.9572286237412
F120.18646952631678
tp69
a(F562.2901184912537
F118.00449918801532
tp70
a(F577.8312788758194
F118.37825196337023
tp71
a(F593.2549252504181
F120.2895198449084
tp72
a(F609.93532452264
F125.2381388938101
tp73
a(F624.0034620394212
F131.85810688223748
tp74
a(F640.0277443618364
F139.00488812815283
tp75
a(F653.0999732000676
F147.39324429278858
tp76
a(F665.1331352687083
F157.23224977004236
tp77
a(F676.3683564329848
F167.97460160881175
tp78
a(F689.4416840229773
F179.60279246454544
tp79
a(F701.1407573929388
F189.84348443603037
tp80
a(F712.6873949465102
F200.25612854588854
tp81
a(F724.1548078976587
F210.75601858783787
tp82
a(F735.5714800113614
F221.31107500564346
tp83
a(F746.9520323096486
F231.90507295549043
tp84
a(F758.3051540366152
F242.52846500998862
tp85
a(F769.6365093175866
F253.17507271885862
tp86
a(F781.5669377677469
F265.91501635775353
tp87
a(F789.886733076125
F279.04965424042075
tp88
a(F797.8663661938856
F292.39360050561595
tp89
a(F805.4660948206221
F305.9573829398484
tp90
a(F812.6301286492125
F319.75604413036854
tp91
a(F819.2708611160732
F333.81363191479636
tp92
a(F825.2184180131882
F348.1770705491633
tp93
a(F829.8420706742147
F363.0053005491446
tp94
a(F832.7112108178295
F380.31262884246064
tp95
a(F834.7286040475444
F395.7292942438829
tp96
a(F836.4469551022592
F411.1819624217865
tp97
a(F837.8184278726053
F428.67400130406
tp98
a(F838.7812486577902
F444.191996461177
tp99
a(F839.3133126015831
F459.7306475147869
tp100
a(F839.3114679856583
F475.2778064017873
tp101
a(F838.0585995940402
F490.7562800525909
tp102
a(F837.4500441832342
F508.28888548459815
tp103
a(F836.7014632691094
F523.818367645264
tp104
a(F835.0493667118667
F539.2750776803395
tp105
a(F832.4870381717058
F556.630597862813
tp106
a(F830.6901233493379
F572.0744849167455
tp107
a(F826.7989285012532
F589.1227858967418
tp108
asS't'
p109
(lp110
F0.0
aF0.15548309746729028
aF0.31096619493458055
aF0.46644929240187083
aF0.6219323898691611
aF0.7774154873364515
aF0.9328985848037417
aF1.0883816822710322
aF1.2438647797383222
aF1.3993478772056125
aF1.554830974672903
aF1.710314072140193
aF1.8657971696074833
aF2.021280267074774
aF2.1767633645420643
aF2.3322464620093544
aF2.4877295594766444
aF2.643212656943935
aF2.798695754411225
aF2.9541788518785155
aF3.109661949345806
aF3.265145046813096
aF3.420628144280386
aF3.5761112417476766
aF3.7315943392149666
aF3.887077436682257
aF4.042560534149548
aF4.198043631616838
aF4.353526729084129
aF4.509009826551418
aF4.664492924018709
aF4.819976021485999
aF4.975459118953289
aF5.130942216420579
aF5.28642531388787
aF5.4419084113551595
aF5.59739150882245
aF5.7528746062897405
aF5.908357703757031
aF6.0638408012243215
aF6.219323898691612
aF6.374806996158902
aF6.530290093626192
aF6.685773191093483
aF6.841256288560772
aF6.996739386028063
aF7.152222483495353
aF7.307705580962643
aF7.463188678429933
aF7.618671775897224
aF7.774154873364514
aF7.929637970831805
aF8.085121068299095
aF8.240604165766385
aF8.396087263233676
aF8.551570360700966
aF8.707053458168257
aF8.862536555635545
aF9.018019653102836
aF9.173502750570126
aF9.328985848037417
aF9.484468945504707
aF9.639952042971998
aF9.795435140439288
aF9.950918237906578
aF10.106401335373869
aF10.261884432841159
aF10.41736753030845
aF10.57285062777574
aF10.72833372524303
aF10.883816822710319
aF11.03929992017761
aF11.1947830176449
aF11.350266115112191
aF11.505749212579481
aF11.66123231004677
aF11.816715407514062
aF11.972198504981352
aF12.127681602448643
aF12.283164699915933
aF12.438647797383224
aF12.594130894850514
aF12.749613992317803
aF12.905097089785093
aF13.060580187252384
aF13.216063284719674
aF13.371546382186965
aF13.527029479654255
aF13.682512577121544
aF13.837995674588836
aF13.993478772056125
aF14.148961869523417
aF14.304444966990706
aF14.459928064457998
aF14.615411161925286
aF14.770894259392577
aF14.926377356859867
aF15.081860454327158
aF15.237343551794448
aF15.392826649261739
assS'points'
p111
(lp112
(I247
I173
tp113
a(I245
I174
tp114
a(I243
I174
tp115
a(I234
I179
tp116
a(I229
I183
tp117
a(I218
I191
tp118
a(I212
I198
tp119
a(I203
I209
tp120
a(I195
I218
tp121
a(I193
I221
tp122
a(I191
I224
tp123
a(I187
I230
tp124
a(I185
I234
tp125
a(I179
I252
tp126
a(I179
I255
tp127
a(I178
I264
tp128
a(I176
I279
tp129
a(I173
I313
tp130
a(I173
I321
tp131
a(I171
I359
tp132
a(I171
I394
tp133
a(I174
I425
tp134
a(I174
I451
tp135
a(I175
I458
tp136
a(I175
I461
tp137
a(I176
I463
tp138
a(I181
I474
tp139
a(I181
I476
tp140
a(I186
I485
tp141
a(I188
I489
tp142
a(I192
I493
tp143
a(I195
I495
tp144
a(I203
I499
tp145
a(I206
I503
tp146
a(I208
I505
tp147
a(I213
I509
tp148
a(I215
I511
tp149
a(I217
I512
tp150
a(I223
I513
tp151
a(I230
I516
tp152
a(I236
I518
tp153
a(I248
I525
tp154
a(I254
I528
tp155
a(I254
I529
tp156
a(I264
I533
tp157
a(I268
I533
tp158
a(I277
I533
tp159
a(I289
I533
tp160
a(I293
I533
tp161
a(I308
I533
tp162
a(I312
I531
tp163
a(I322
I528
tp164
a(I323
I527
tp165
a(I347
I519
tp166
a(I350
I516
tp167
a(I366
I506
tp168
a(I378
I499
tp169
a(I383
I494
tp170
a(I409
I476
tp171
a(I425
I446
tp172
a(I431
I432
tp173
a(I437
I416
tp174
a(I437
I413
tp175
a(I441
I388
tp176
a(I444
I374
tp177
a(I445
I369
tp178
a(I451
I345
tp179
a(I455
I323
tp180
a(I462
I310
tp181
a(I465
I297
tp182
a(I465
I289
tp183
a(I466
I272
tp184
a(I466
I264
tp185
a(I468
I248
tp186
a(I468
I245
tp187
a(I474
I227
tp188
a(I485
I208
tp189
a(I500
I171
tp190
a(I502
I166
tp191
a(I520
I127
tp192
a(I522
I127
tp193
a(I538
I122
tp194
a(I544
I120
tp195
a(I552
I119
tp196
a(I556
I118
tp197
a(I578
I118
tp198
a(I581
I118
tp199
a(I603
I122
tp200
a(I614
I127
tp201
a(I617
I129
tp202
a(I638
I138
tp203
a(I655
I146
tp204
a(I676
I167
tp205
a(I680
I172
tp206
a(I687
I177
tp207
a(I708
I195
tp208
a(I779
I262
tp209
a(I816
I318
tp210
a(I829
I356
tp211
a(I830
I364
tp212
a(I832
I372
tp213
a(I837
I412
tp214
a(I837
I419
tp215
a(I840
I451
tp216
a(I840
I483
tp217
a(I838
I491
tp218
a(I837
I523
tp219
a(I837
I529
tp220
a(I833
I552
tp221
a(I831
I570
tp222
a(I830
I580
tp223
a(I828
I586
tp224
a(I823
I599
tp225
a(I816
I599
tp226
a(I815
I599
tp227
asS'path'
p228
NsS'duration'
p229
F15.548309746729029
sS'velocity'
p230
I100
sS'arclen'
p231
F1554.8309746729028
sb.